; Function Attrs: nounwind uwtable
define dso_local ptr @js_init_module_std(ptr noundef %0, ptr noundef %1) local_unnamed_addr #0 {
  %3 = tail call ptr @JS_NewCModule(ptr noundef %0, ptr noundef %1, ptr noundef nonnull @js_std_init) #29
  %.not = icmp eq ptr %3, null
  br i1 %.not, label %9, label %4

4:                                                ; preds = %2
  %5 = tail call i32 @JS_AddModuleExportList(ptr noundef %0, ptr noundef nonnull %3, ptr noundef nonnull @js_std_funcs, i32 noundef 23) #29
  %6 = tail call i32 @JS_AddModuleExport(ptr noundef %0, ptr noundef nonnull %3, ptr noundef nonnull @.str.7) #29
  %7 = tail call i32 @JS_AddModuleExport(ptr noundef %0, ptr noundef nonnull %3, ptr noundef nonnull @.str.8) #29
  %8 = tail call i32 @JS_AddModuleExport(ptr noundef %0, ptr noundef nonnull %3, ptr noundef nonnull @.str.9) #29
  br label %9

9:                                                ; preds = %2, %4
  ret ptr %3
}